; ModuleID = 'source-C-CXX/41/1111.cpp'
source_filename = "source-C-CXX/41/1111.cpp"
target datalayout = "e-m:e-p270:32:32-p271:32:32-p272:64:64-i64:64-f80:128-n8:16:32:64-S128"
target triple = "x86_64-pc-linux-gnu"

%"class.std::ios_base::Init" = type { i8 }
%"class.std::basic_istream" = type { i32 (...)**, i64, %"class.std::basic_ios" }
%"class.std::basic_ios" = type { %"class.std::ios_base", %"class.std::basic_ostream"*, i8, i8, %"class.std::basic_streambuf"*, %"class.std::ctype"*, %"class.std::num_put"*, %"class.std::num_get"* }
%"class.std::ios_base" = type { i32 (...)**, i64, i64, i32, i32, i32, %"struct.std::ios_base::_Callback_list"*, %"struct.std::ios_base::_Words", [8 x %"struct.std::ios_base::_Words"], i32, %"struct.std::ios_base::_Words"*, %"class.std::locale" }
%"struct.std::ios_base::_Callback_list" = type { %"struct.std::ios_base::_Callback_list"*, void (i32, %"class.std::ios_base"*, i32)*, i32, i32 }
%"struct.std::ios_base::_Words" = type { i8*, i64 }
%"class.std::locale" = type { %"class.std::locale::_Impl"* }
%"class.std::locale::_Impl" = type { i32, %"class.std::locale::facet"**, i64, %"class.std::locale::facet"**, i8** }
%"class.std::locale::facet" = type <{ i32 (...)**, i32, [4 x i8] }>
%"class.std::basic_ostream" = type { i32 (...)**, %"class.std::basic_ios" }
%"class.std::basic_streambuf" = type { i32 (...)**, i8*, i8*, i8*, i8*, i8*, i8*, %"class.std::locale" }
%"class.std::ctype" = type <{ %"class.std::locale::facet.base", [4 x i8], %struct.__locale_struct*, i8, [7 x i8], i32*, i32*, i16*, i8, [256 x i8], [256 x i8], i8, [6 x i8] }>
%"class.std::locale::facet.base" = type <{ i32 (...)**, i32 }>
%struct.__locale_struct = type { [13 x %struct.__locale_data*], i16*, i32*, i32*, [13 x i8*] }
%struct.__locale_data = type opaque
%"class.std::num_put" = type { %"class.std::locale::facet.base", [4 x i8] }
%"class.std::num_get" = type { %"class.std::locale::facet.base", [4 x i8] }

@_ZStL8__ioinit = internal global %"class.std::ios_base::Init" zeroinitializer, align 1
@__dso_handle = external hidden global i8
@_ZSt3cin = external global %"class.std::basic_istream", align 8
@_ZSt4cout = external global %"class.std::basic_ostream", align 8
@.str = private unnamed_addr constant [2 x i8] c" \00", align 1
@llvm.global_ctors = appending global [1 x { i32, void ()*, i8* }] [{ i32, void ()*, i8* } { i32 65535, void ()* @_GLOBAL__sub_I_1111.cpp, i8* null }]

declare void @_ZNSt8ios_base4InitC1Ev(%"class.std::ios_base::Init"* nonnull align 1 dereferenceable(1)) unnamed_addr #0

; Function Attrs: nounwind
declare void @_ZNSt8ios_base4InitD1Ev(%"class.std::ios_base::Init"* nonnull align 1 dereferenceable(1)) unnamed_addr #1

; Function Attrs: nofree nounwind
declare i32 @__cxa_atexit(void (i8*)*, i8*, i8*) local_unnamed_addr #2

; Function Attrs: mustprogress norecurse sspstrong uwtable
define dso_local i32 @main() local_unnamed_addr #3 {
  %1 = alloca i32, align 4
  %2 = alloca i32, align 4
  %3 = alloca [110001 x i32], align 16
  %4 = bitcast [110001 x i32]* %3 to i8*
  %5 = bitcast i32* %1 to i8*
  call void @llvm.lifetime.start.p0i8(i64 4, i8* nonnull %5) #7
  %6 = bitcast i32* %2 to i8*
  call void @llvm.lifetime.start.p0i8(i64 4, i8* nonnull %6) #7
  call void @llvm.lifetime.start.p0i8(i64 440004, i8* nonnull %4) #7
  %7 = call nonnull align 8 dereferenceable(16) %"class.std::basic_istream"* @_ZNSirsERi(%"class.std::basic_istream"* nonnull align 8 dereferenceable(16) @_ZSt3cin, i32* nonnull align 4 dereferenceable(4) %1)
  call void @llvm.memset.p0i8.i64(i8* noundef nonnull align 16 dereferenceable(440004) %4, i8 0, i64 440004, i1 false)
  %8 = load i32, i32* %1, align 4, !tbaa !5
  %9 = icmp slt i32 %8, 1
  br i1 %9, label %18, label %10

10:                                               ; preds = %0, %10
  %11 = phi i64 [ %14, %10 ], [ 1, %0 ]
  %12 = getelementptr inbounds [110001 x i32], [110001 x i32]* %3, i64 0, i64 %11
  %13 = call nonnull align 8 dereferenceable(16) %"class.std::basic_istream"* @_ZNSirsERi(%"class.std::basic_istream"* nonnull align 8 dereferenceable(16) @_ZSt3cin, i32* nonnull align 4 dereferenceable(4) %12)
  %14 = add nuw nsw i64 %11, 1
  %15 = load i32, i32* %1, align 4, !tbaa !5
  %16 = sext i32 %15 to i64
  %17 = icmp slt i64 %11, %16
  br i1 %17, label %10, label %18, !llvm.loop !9

18:                                               ; preds = %10, %0
  %19 = call nonnull align 8 dereferenceable(16) %"class.std::basic_istream"* @_ZNSirsERi(%"class.std::basic_istream"* nonnull align 8 dereferenceable(16) @_ZSt3cin, i32* nonnull align 4 dereferenceable(4) %2)
  %20 = load i32, i32* %1, align 4, !tbaa !5
  %21 = load i32, i32* %2, align 4
  %22 = icmp slt i32 %20, 1
  br i1 %22, label %25, label %23

23:                                               ; preds = %18
  %24 = add nuw i32 %20, 1
  br label %31

25:                                               ; preds = %117, %18
  %26 = phi i32 [ 0, %18 ], [ %119, %117 ]
  %27 = sub nsw i32 %20, %26
  %28 = icmp sgt i32 %27, 1
  br i1 %28, label %122, label %29

29:                                               ; preds = %25
  %30 = sext i32 %27 to i64
  br label %133

31:                                               ; preds = %23, %117
  %32 = phi i32 [ %119, %117 ], [ 0, %23 ]
  %33 = phi i32 [ %120, %117 ], [ 1, %23 ]
  %34 = sext i32 %33 to i64
  %35 = getelementptr inbounds [110001 x i32], [110001 x i32]* %3, i64 0, i64 %34
  %36 = load i32, i32* %35, align 4, !tbaa !5
  %37 = icmp eq i32 %36, %21
  br i1 %37, label %38, label %117

38:                                               ; preds = %31
  %39 = sub nsw i32 %20, %32
  %40 = icmp sgt i32 %33, %39
  br i1 %40, label %114, label %41

41:                                               ; preds = %38
  %42 = sub i32 %24, %32
  %43 = sext i32 %42 to i64
  %44 = sub nsw i64 %43, %34
  %45 = icmp ult i64 %44, 8
  br i1 %45, label %105, label %46

46:                                               ; preds = %41
  %47 = and i64 %44, -8
  %48 = add nsw i64 %47, %34
  %49 = add nsw i64 %47, -8
  %50 = lshr exact i64 %49, 3
  %51 = add nuw nsw i64 %50, 1
  %52 = and i64 %51, 1
  %53 = icmp eq i64 %49, 0
  br i1 %53, label %87, label %54

54:                                               ; preds = %46
  %55 = and i64 %51, 4611686018427387902
  br label %56

56:                                               ; preds = %56, %54
  %57 = phi i64 [ 0, %54 ], [ %84, %56 ]
  %58 = phi i64 [ %55, %54 ], [ %85, %56 ]
  %59 = add i64 %57, %34
  %60 = add nsw i64 %59, 1
  %61 = getelementptr inbounds [110001 x i32], [110001 x i32]* %3, i64 0, i64 %60
  %62 = bitcast i32* %61 to <4 x i32>*
  %63 = load <4 x i32>, <4 x i32>* %62, align 4, !tbaa !5
  %64 = getelementptr inbounds i32, i32* %61, i64 4
  %65 = bitcast i32* %64 to <4 x i32>*
  %66 = load <4 x i32>, <4 x i32>* %65, align 4, !tbaa !5
  %67 = getelementptr inbounds [110001 x i32], [110001 x i32]* %3, i64 0, i64 %59
  %68 = bitcast i32* %67 to <4 x i32>*
  store <4 x i32> %63, <4 x i32>* %68, align 4, !tbaa !5
  %69 = getelementptr inbounds i32, i32* %67, i64 4
  %70 = bitcast i32* %69 to <4 x i32>*
  store <4 x i32> %66, <4 x i32>* %70, align 4, !tbaa !5
  %71 = or i64 %57, 8
  %72 = add i64 %71, %34
  %73 = add nsw i64 %72, 1
  %74 = getelementptr inbounds [110001 x i32], [110001 x i32]* %3, i64 0, i64 %73
  %75 = bitcast i32* %74 to <4 x i32>*
  %76 = load <4 x i32>, <4 x i32>* %75, align 4, !tbaa !5
  %77 = getelementptr inbounds i32, i32* %74, i64 4
  %78 = bitcast i32* %77 to <4 x i32>*
  %79 = load <4 x i32>, <4 x i32>* %78, align 4, !tbaa !5
  %80 = getelementptr inbounds [110001 x i32], [110001 x i32]* %3, i64 0, i64 %72
  %81 = bitcast i32* %80 to <4 x i32>*
  store <4 x i32> %76, <4 x i32>* %81, align 4, !tbaa !5
  %82 = getelementptr inbounds i32, i32* %80, i64 4
  %83 = bitcast i32* %82 to <4 x i32>*
  store <4 x i32> %79, <4 x i32>* %83, align 4, !tbaa !5
  %84 = add nuw i64 %57, 16
  %85 = add i64 %58, -2
  %86 = icmp eq i64 %85, 0
  br i1 %86, label %87, label %56, !llvm.loop !11

87:                                               ; preds = %56, %46
  %88 = phi i64 [ 0, %46 ], [ %84, %56 ]
  %89 = icmp eq i64 %52, 0
  br i1 %89, label %103, label %90

90:                                               ; preds = %87
  %91 = add i64 %88, %34
  %92 = add nsw i64 %91, 1
  %93 = getelementptr inbounds [110001 x i32], [110001 x i32]* %3, i64 0, i64 %92
  %94 = bitcast i32* %93 to <4 x i32>*
  %95 = load <4 x i32>, <4 x i32>* %94, align 4, !tbaa !5
  %96 = getelementptr inbounds i32, i32* %93, i64 4
  %97 = bitcast i32* %96 to <4 x i32>*
  %98 = load <4 x i32>, <4 x i32>* %97, align 4, !tbaa !5
  %99 = getelementptr inbounds [110001 x i32], [110001 x i32]* %3, i64 0, i64 %91
  %100 = bitcast i32* %99 to <4 x i32>*
  store <4 x i32> %95, <4 x i32>* %100, align 4, !tbaa !5
  %101 = getelementptr inbounds i32, i32* %99, i64 4
  %102 = bitcast i32* %101 to <4 x i32>*
  store <4 x i32> %98, <4 x i32>* %102, align 4, !tbaa !5
  br label %103

103:                                              ; preds = %87, %90
  %104 = icmp eq i64 %44, %47
  br i1 %104, label %114, label %105

105:                                              ; preds = %41, %103
  %106 = phi i64 [ %34, %41 ], [ %48, %103 ]
  br label %107

107:                                              ; preds = %105, %107
  %108 = phi i64 [ %109, %107 ], [ %106, %105 ]
  %109 = add nsw i64 %108, 1
  %110 = getelementptr inbounds [110001 x i32], [110001 x i32]* %3, i64 0, i64 %109
  %111 = load i32, i32* %110, align 4, !tbaa !5
  %112 = getelementptr inbounds [110001 x i32], [110001 x i32]* %3, i64 0, i64 %108
  store i32 %111, i32* %112, align 4, !tbaa !5
  %113 = icmp eq i64 %109, %43
  br i1 %113, label %114, label %107, !llvm.loop !13

114:                                              ; preds = %107, %103, %38
  %115 = add nsw i32 %32, 1
  %116 = add nsw i32 %33, -1
  br label %117

117:                                              ; preds = %31, %114
  %118 = phi i32 [ %116, %114 ], [ %33, %31 ]
  %119 = phi i32 [ %115, %114 ], [ %32, %31 ]
  %120 = add nsw i32 %118, 1
  %121 = icmp slt i32 %118, %20
  br i1 %121, label %31, label %25, !llvm.loop !15

122:                                              ; preds = %25, %122
  %123 = phi i64 [ %128, %122 ], [ 1, %25 ]
  %124 = getelementptr inbounds [110001 x i32], [110001 x i32]* %3, i64 0, i64 %123
  %125 = load i32, i32* %124, align 4, !tbaa !5
  %126 = call nonnull align 8 dereferenceable(8) %"class.std::basic_ostream"* @_ZNSolsEi(%"class.std::basic_ostream"* nonnull align 8 dereferenceable(8) @_ZSt4cout, i32 %125)
  %127 = call nonnull align 8 dereferenceable(8) %"class.std::basic_ostream"* @_ZSt16__ostream_insertIcSt11char_traitsIcEERSt13basic_ostreamIT_T0_ES6_PKS3_l(%"class.std::basic_ostream"* nonnull align 8 dereferenceable(8) %126, i8* nonnull getelementptr inbounds ([2 x i8], [2 x i8]* @.str, i64 0, i64 0), i64 1)
  %128 = add nuw nsw i64 %123, 1
  %129 = load i32, i32* %1, align 4, !tbaa !5
  %130 = sub nsw i32 %129, %26
  %131 = sext i32 %130 to i64
  %132 = icmp slt i64 %128, %131
  br i1 %132, label %122, label %133, !llvm.loop !16

133:                                              ; preds = %122, %29
  %134 = phi i64 [ %30, %29 ], [ %131, %122 ]
  %135 = getelementptr inbounds [110001 x i32], [110001 x i32]* %3, i64 0, i64 %134
  %136 = load i32, i32* %135, align 4, !tbaa !5
  %137 = call nonnull align 8 dereferenceable(8) %"class.std::basic_ostream"* @_ZNSolsEi(%"class.std::basic_ostream"* nonnull align 8 dereferenceable(8) @_ZSt4cout, i32 %136)
  call void @llvm.lifetime.end.p0i8(i64 440004, i8* nonnull %4) #7
  call void @llvm.lifetime.end.p0i8(i64 4, i8* nonnull %6) #7
  call void @llvm.lifetime.end.p0i8(i64 4, i8* nonnull %5) #7
  ret i32 0
}

; Function Attrs: argmemonly mustprogress nofree nosync nounwind willreturn
declare void @llvm.lifetime.start.p0i8(i64 immarg, i8* nocapture) #4

declare nonnull align 8 dereferenceable(16) %"class.std::basic_istream"* @_ZNSirsERi(%"class.std::basic_istream"* nonnull align 8 dereferenceable(16), i32* nonnull align 4 dereferenceable(4)) local_unnamed_addr #0

declare nonnull align 8 dereferenceable(8) %"class.std::basic_ostream"* @_ZNSolsEi(%"class.std::basic_ostream"* nonnull align 8 dereferenceable(8), i32) local_unnamed_addr #0

; Function Attrs: argmemonly mustprogress nofree nosync nounwind willreturn
declare void @llvm.lifetime.end.p0i8(i64 immarg, i8* nocapture) #4

declare nonnull align 8 dereferenceable(8) %"class.std::basic_ostream"* @_ZSt16__ostream_insertIcSt11char_traitsIcEERSt13basic_ostreamIT_T0_ES6_PKS3_l(%"class.std::basic_ostream"* nonnull align 8 dereferenceable(8), i8*, i64) local_unnamed_addr #0

; Function Attrs: sspstrong uwtable
define internal void @_GLOBAL__sub_I_1111.cpp() #5 section ".text.startup" {
  tail call void @_ZNSt8ios_base4InitC1Ev(%"class.std::ios_base::Init"* nonnull align 1 dereferenceable(1) @_ZStL8__ioinit)
  %1 = tail call i32 @__cxa_atexit(void (i8*)* bitcast (void (%"class.std::ios_base::Init"*)* @_ZNSt8ios_base4InitD1Ev to void (i8*)*), i8* getelementptr inbounds (%"class.std::ios_base::Init", %"class.std::ios_base::Init"* @_ZStL8__ioinit, i64 0, i32 0), i8* nonnull @__dso_handle) #7
  ret void
}

; Function Attrs: argmemonly nofree nounwind willreturn writeonly
declare void @llvm.memset.p0i8.i64(i8* nocapture writeonly, i8, i64, i1 immarg) #6


!llvm.module.flags = !{!0, !1, !2, !3}
!llvm.ident = !{!4}

!0 = !{i32 1, !"wchar_size", i32 4}
!1 = !{i32 7, !"PIC Level", i32 2}
!2 = !{i32 7, !"PIE Level", i32 2}
!3 = !{i32 7, !"uwtable", i32 1}
!4 = !{!"clang version 13.0.0"}
!5 = !{!6, !6, i64 0}
!6 = !{!"int", !7, i64 0}
!7 = !{!"omnipotent char", !8, i64 0}
!8 = !{!"Simple C++ TBAA"}
!9 = distinct !{!9, !10}
!10 = !{!"llvm.loop.mustprogress"}
!11 = distinct !{!11, !10, !12}
!12 = !{!"llvm.loop.isvectorized", i32 1}
!13 = distinct !{!13, !10, !14, !12}
!14 = !{!"llvm.loop.unroll.runtime.disable"}
!15 = distinct !{!15, !10}
!16 = distinct !{!16, !10}
